; ModuleID = '33/2851.c'
source_filename = "33/2851.c"
target datalayout = "e-m:e-p270:32:32-p271:32:32-p272:64:64-i64:64-f80:128-n8:16:32:64-S128"
target triple = "x86_64-pc-linux-gnu"

@.str = private unnamed_addr constant [3 x i8] c"%d\00", align 1
@.str.1 = private unnamed_addr constant [4 x i8] c"%s\0A\00", align 1

; Function Attrs: noinline nounwind uwtable
define dso_local i32 @main() #0 {
  %1 = alloca i32, align 4
  %2 = alloca i32, align 4
  %3 = alloca i32, align 4
  %4 = alloca i32, align 4
  %5 = alloca i8*, align 8
  %6 = alloca i64, align 8
  store i32 0, i32* %1, align 4
  %7 = call i32 (i8*, ...) @__isoc99_scanf(i8* getelementptr inbounds ([3 x i8], [3 x i8]* @.str, i64 0, i64 0), i32* %2)
  %8 = load i32, i32* %2, align 4
  %9 = zext i32 %8 to i64
  %10 = call i8* @llvm.stacksave()
  store i8* %10, i8** %5, align 8
  %11 = alloca [255 x i8], i64 %9, align 16
  store i64 %9, i64* %6, align 8
  store i32 0, i32* %3, align 4
  br label %12

12:                                               ; preds = %79, %0
  %13 = load i32, i32* %3, align 4
  %14 = load i32, i32* %2, align 4
  %15 = icmp slt i32 %13, %14
  br i1 %15, label %16, label %82

16:                                               ; preds = %12
  %17 = load i32, i32* %3, align 4
  %18 = sext i32 %17 to i64
  %19 = getelementptr inbounds [255 x i8], [255 x i8]* %11, i64 %18
  %20 = getelementptr inbounds [255 x i8], [255 x i8]* %19, i64 0, i64 0
  %21 = call i32 (i8*, ...) @__isoc99_scanf(i8* getelementptr inbounds ([4 x i8], [4 x i8]* @.str.1, i64 0, i64 0), i8* %20)
  store i32 0, i32* %4, align 4
  br label %22

22:                                               ; preds = %70, %16
  %23 = load i32, i32* %3, align 4
  %24 = sext i32 %23 to i64
  %25 = getelementptr inbounds [255 x i8], [255 x i8]* %11, i64 %24
  %26 = load i32, i32* %4, align 4
  %27 = sext i32 %26 to i64
  %28 = getelementptr inbounds [255 x i8], [255 x i8]* %25, i64 0, i64 %27
  %29 = load i8, i8* %28, align 1
  %30 = sext i8 %29 to i32
  %31 = icmp ne i32 %30, 0
  br i1 %31, label %32, label %73

32:                                               ; preds = %22
  %33 = load i32, i32* %3, align 4
  %34 = sext i32 %33 to i64
  %35 = getelementptr inbounds [255 x i8], [255 x i8]* %11, i64 %34
  %36 = load i32, i32* %4, align 4
  %37 = sext i32 %36 to i64
  %38 = getelementptr inbounds [255 x i8], [255 x i8]* %35, i64 0, i64 %37
  %39 = load i8, i8* %38, align 1
  %40 = sext i8 %39 to i32
  switch i32 %40, label %69 [
    i32 67, label %41
    i32 71, label %48
    i32 65, label %55
    i32 84, label %62
  ]

41:                                               ; preds = %32
  %42 = load i32, i32* %3, align 4
  %43 = sext i32 %42 to i64
  %44 = getelementptr inbounds [255 x i8], [255 x i8]* %11, i64 %43
  %45 = load i32, i32* %4, align 4
  %46 = sext i32 %45 to i64
  %47 = getelementptr inbounds [255 x i8], [255 x i8]* %44, i64 0, i64 %46
  store i8 71, i8* %47, align 1
  br label %69

48:                                               ; preds = %32
  %49 = load i32, i32* %3, align 4
  %50 = sext i32 %49 to i64
  %51 = getelementptr inbounds [255 x i8], [255 x i8]* %11, i64 %50
  %52 = load i32, i32* %4, align 4
  %53 = sext i32 %52 to i64
  %54 = getelementptr inbounds [255 x i8], [255 x i8]* %51, i64 0, i64 %53
  store i8 67, i8* %54, align 1
  br label %69

55:                                               ; preds = %32
  %56 = load i32, i32* %3, align 4
  %57 = sext i32 %56 to i64
  %58 = getelementptr inbounds [255 x i8], [255 x i8]* %11, i64 %57
  %59 = load i32, i32* %4, align 4
  %60 = sext i32 %59 to i64
  %61 = getelementptr inbounds [255 x i8], [255 x i8]* %58, i64 0, i64 %60
  store i8 84, i8* %61, align 1
  br label %69

62:                                               ; preds = %32
  %63 = load i32, i32* %3, align 4
  %64 = sext i32 %63 to i64
  %65 = getelementptr inbounds [255 x i8], [255 x i8]* %11, i64 %64
  %66 = load i32, i32* %4, align 4
  %67 = sext i32 %66 to i64
  %68 = getelementptr inbounds [255 x i8], [255 x i8]* %65, i64 0, i64 %67
  store i8 65, i8* %68, align 1
  br label %69

69:                                               ; preds = %32, %62, %55, %48, %41
  br label %70

70:                                               ; preds = %69
  %71 = load i32, i32* %4, align 4
  %72 = add nsw i32 %71, 1
  store i32 %72, i32* %4, align 4
  br label %22

73:                                               ; preds = %22
  %74 = load i32, i32* %3, align 4
  %75 = sext i32 %74 to i64
  %76 = getelementptr inbounds [255 x i8], [255 x i8]* %11, i64 %75
  %77 = getelementptr inbounds [255 x i8], [255 x i8]* %76, i64 0, i64 0
  %78 = call i32 (i8*, ...) @printf(i8* getelementptr inbounds ([4 x i8], [4 x i8]* @.str.1, i64 0, i64 0), i8* %77)
  br label %79

79:                                               ; preds = %73
  %80 = load i32, i32* %3, align 4
  %81 = add nsw i32 %80, 1
  store i32 %81, i32* %3, align 4
  br label %12

82:                                               ; preds = %12
  store i32 0, i32* %1, align 4
  %83 = load i8*, i8** %5, align 8
  call void @llvm.stackrestore(i8* %83)
  %84 = load i32, i32* %1, align 4
  ret i32 %84
}

declare dso_local i32 @__isoc99_scanf(i8*, ...) #1

; Function Attrs: nounwind
declare i8* @llvm.stacksave() #2

declare dso_local i32 @printf(i8*, ...) #1

; Function Attrs: nounwind
declare void @llvm.stackrestore(i8*) #2


!llvm.module.flags = !{!0}
!llvm.ident = !{!1}

!0 = !{i32 1, !"wchar_size", i32 4}
!1 = !{!"clang version 10.0.0-4ubuntu1 "}
